target datalayout = "e-m:e-p270:32:32-p271:32:32-p272:64:64-i64:64-i128:128-f80:128-n8:16:32:64-S128"
target triple = "x86_64-pc-linux-gnu"

%struct.cbs_st = type { ptr, i64 }

; Function Attrs: nounwind uwtable
define hidden i32 @CBS_stow(ptr noundef %0, ptr noundef %1, ptr noundef %2) #0 {
  %4 = alloca i32, align 4
  %5 = alloca ptr, align 8
  %6 = alloca ptr, align 8
  %7 = alloca ptr, align 8
  store ptr %0, ptr %5, align 8, !tbaa !6
  store ptr %1, ptr %6, align 8, !tbaa !18
  store ptr %2, ptr %7, align 8, !tbaa !20
  %8 = load ptr, ptr %6, align 8, !tbaa !18
  %9 = load ptr, ptr %8, align 8, !tbaa !11
  call void @free(ptr noundef %9) #6
  %10 = load ptr, ptr %6, align 8, !tbaa !18
  store ptr null, ptr %10, align 8, !tbaa !11
  %11 = load ptr, ptr %7, align 8, !tbaa !20
  store i64 0, ptr %11, align 8, !tbaa !13
  %12 = load ptr, ptr %5, align 8, !tbaa !6
  %13 = getelementptr inbounds nuw %struct.cbs_st, ptr %12, i32 0, i32 1
  %14 = load i64, ptr %13, align 8, !tbaa !17
  %15 = icmp eq i64 %14, 0
  br i1 %15, label %16, label %17

16:                                               ; preds = %3
  store i32 1, ptr %4, align 4
  br label %35

17:                                               ; preds = %3
  %18 = load ptr, ptr %5, align 8, !tbaa !6
  %19 = getelementptr inbounds nuw %struct.cbs_st, ptr %18, i32 0, i32 0
  %20 = load ptr, ptr %19, align 8, !tbaa !15
  %21 = load ptr, ptr %5, align 8, !tbaa !6
  %22 = getelementptr inbounds nuw %struct.cbs_st, ptr %21, i32 0, i32 1
  %23 = load i64, ptr %22, align 8, !tbaa !17
  %24 = call ptr @BUF_memdup(ptr noundef %20, i64 noundef %23)
  %25 = load ptr, ptr %6, align 8, !tbaa !18
  store ptr %24, ptr %25, align 8, !tbaa !11
  %26 = load ptr, ptr %6, align 8, !tbaa !18
  %27 = load ptr, ptr %26, align 8, !tbaa !11
  %28 = icmp eq ptr %27, null
  br i1 %28, label %29, label %30

29:                                               ; preds = %17
  store i32 0, ptr %4, align 4
  br label %35

30:                                               ; preds = %17
  %31 = load ptr, ptr %5, align 8, !tbaa !6
  %32 = getelementptr inbounds nuw %struct.cbs_st, ptr %31, i32 0, i32 1
  %33 = load i64, ptr %32, align 8, !tbaa !17
  %34 = load ptr, ptr %7, align 8, !tbaa !20
  store i64 %33, ptr %34, align 8, !tbaa !13
  store i32 1, ptr %4, align 4
  br label %35

35:                                               ; preds = %30, %29, %16
  %36 = load i32, ptr %4, align 4
  ret i32 %36
}