; Function Attrs: nounwind uwtable
define hidden range(i32 0, 2) i32 @CBS_stow(ptr noundef readonly captures(none) %0, ptr noundef captures(none) %1, ptr noundef writeonly captures(none) initializes((0, 8)) %2) local_unnamed_addr #4 {
  %4 = load ptr, ptr %1, align 8, !tbaa !14
  tail call void @free(ptr noundef %4) #15
  store ptr null, ptr %1, align 8, !tbaa !14
  store i64 0, ptr %2, align 8, !tbaa !15
  %5 = getelementptr inbounds nuw i8, ptr %0, i64 8
  %6 = load i64, ptr %5, align 8, !tbaa !13
  %7 = icmp eq i64 %6, 0
  br i1 %7, label %14, label %8

8:                                                ; preds = %3
  %9 = load ptr, ptr %0, align 8, !tbaa !6
  %10 = tail call ptr @BUF_memdup(ptr noundef %9, i64 noundef %6) #15
  store ptr %10, ptr %1, align 8, !tbaa !14
  %11 = icmp eq ptr %10, null
  br i1 %11, label %14, label %12

12:                                               ; preds = %8
  %13 = load i64, ptr %5, align 8, !tbaa !13
  store i64 %13, ptr %2, align 8, !tbaa !15
  br label %14

14:                                               ; preds = %8, %3, %12
  %.0 = phi i32 [ 1, %12 ], [ 1, %3 ], [ 0, %8 ]
  ret i32 %.0
}